; Function Attrs: nounwind uwtable
define internal noundef i32 @json_unique_object_end(ptr noundef captures(none) %0) #0 {
  %2 = getelementptr inbounds nuw i8, ptr %0, i64 28
  %3 = load i8, ptr %2, align 4, !range !4, !noundef !5
  %4 = trunc nuw i8 %3 to i1
  br i1 %4, label %5, label %9

5:                                                ; preds = %1
  %6 = getelementptr inbounds nuw i8, ptr %0, i64 16
  %7 = load ptr, ptr %6, align 8
  %8 = load ptr, ptr %7, align 8
  store ptr %8, ptr %6, align 8
  tail call void @pfree(ptr noundef nonnull %7) #10
  br label %9

9:                                                ; preds = %1, %5
  ret i32 0
}